(lp0
(S'loves'
p1
S'0.992'
p2
tp3
a(S'inspirational'
p4
S'0.992'
p5
tp6
a(S'amazing'
p7
S'0.984'
p8
tp9
a(S'peaceful'
p10
S'0.984'
p11
tp12
a(S'greatness'
p13
S'0.977'
p14
tp15
a(S'fantastic'
p16
S'0.969'
p17
tp18
a(S'happytweet'
p19
S'0.969'
p20
tp21
a(S'spectacular'
p22
S'0.961'
p23
tp24
a(S'phenomenal'
p25
S'0.961'
p26
tp27
a(S'happy'
p28
S'0.953'
p29
tp30
a(S'fabulous'
p31
S'0.953'
p32
tp33
a(S'enjoyed'
p34
S'0.953'
p35
tp36
a(S'awesomeness'
p37
S'0.953'
p38
tp39
a(S'thebest'
p40
S'0.945'
p41
tp42
a(S'perfection'
p43
S'0.945'
p44
tp45
a(S'sweetheart'
p46
S'0.945'
p47
tp48
a(S'congratulation'
p49
S'0.945'
p50
tp51
a(S'inspired'
p52
S'0.945'
p53
tp54
a(S'woooohoooo'
p55
S'0.938'
p56
tp57
a(S'love'
p58
S'0.938'
p59
tp60
a(S'gorgeous'
p61
S'0.938'
p62
tp63
a(S'love'
p64
S'0.938'
p65
tp66
a(S'outstanding'
p67
S'0.938'
p68
tp69
a(S'happiness'
p70
S'0.938'
p71
tp72
a(S'gorgeous'
p73
S'0.938'
p74
tp75
a(S'helpful'
p76
S'0.938'
p77
tp78
a(S'glorious'
p79
S'0.938'
p80
tp81
a(S'liked'
p82
S'0.938'
p83
tp84
a(S'loving'
p85
S'0.938'
p86
tp87
a(S'inspire'
p88
S'0.93'
p89
tp90
a(S'fantastic'
p91
S'0.93'
p92
tp93
a(S'sophisticated'
p94
S'0.93'
p95
tp96
a(S'loved'
p97
S'0.93'
p98
tp99
a(S'appriciate'
p100
S'0.93'
p101
tp102
a(S'goodluck'
p103
S'0.922'
p104
tp105
a(S'positive'
p106
S'0.922'
p107
tp108
a(S'amazzing'
p109
S'0.922'
p110
tp111
a(S'lovee'
p112
S'0.922'
p113
tp114
a(S'incredible'
p115
S'0.922'
p116
tp117
a(S'inspiration'
p118
S'0.922'
p119
tp120
a(S'wonderful'
p121
S'0.922'
p122
tp123
a(S'sensational'
p124
S'0.922'
p125
tp126
a(S'graceful'
p127
S'0.922'
p128
tp129
a(S'magnificent'
p130
S'0.922'
p131
tp132
a(S'bravo'
p133
S'0.914'
p134
tp135
a(S'marvelous'
p136
S'0.914'
p137
tp138
a(S'phenomenal'
p139
S'0.914'
p140
tp141
a(S'lovely'
p142
S'0.914'
p143
tp144
a(S'optimistic'
p145
S'0.914'
p146
tp147
a(S'flawless'
p148
S'0.914'
p149
tp150
a(S'breathtaking'
p151
S'0.914'
p152
tp153
a(S'yum'
p154
S'0.914'
p155
tp156
a(S'beauty'
p157
S'0.914'
p158
tp159
a(S'inspiring'
p160
S'0.906'
p161
tp162
a(S'relaxing'
p163
S'0.906'
p164
tp165
a(S'encouragement'
p166
S'0.906'
p167
tp168
a(S'yahooo'
p169
S'0.906'
p170
tp171
a(S'congratulations'
p172
S'0.906'
p173
tp174
a(S'luv'
p175
S'0.906'
p176
tp177
a(S'yummm'
p178
S'0.906'
p179
tp180
a(S'easy'
p181
S'0.906'
p182
tp183
a(S'goooood'
p184
S'0.906'
p185
tp186
a(S'superb'
p187
S'0.906'
p188
tp189
a(S'awesome'
p190
S'0.906'
p191
tp192
a(S'thrilled'
p193
S'0.906'
p194
tp195
a(S'marryme'
p196
S'0.906'
p197
tp198
a(S'fab'
p199
S'0.906'
p200
tp201
a(S'impressed'
p202
S'0.906'
p203
tp204
a(S'stunning'
p205
S'0.906'
p206
tp207
a(S'best'
p208
S'0.906'
p209
tp210
a(S'goodsex'
p211
S'0.898'
p212
tp213
a(S'glamorous'
p214
S'0.898'
p215
tp216
a(S'loveeee'
p217
S'0.898'
p218
tp219
a(S'hilarious'
p220
S'0.898'
p221
tp222
a(S'yummyy'
p223
S'0.898'
p224
tp225
a(S'woohoo'
p226
S'0.898'
p227
tp228
a(S'sunshine'
p229
S'0.898'
p230
tp231
a(S'goodvibes'
p232
S'0.898'
p233
tp234
a(S'sweet'
p235
S'0.898'
p236
tp237
a(S'relaxing'
p238
S'0.891'
p239
tp240
a(S'magical'
p241
S'0.891'
p242
tp243
a(S'sweet'
p244
S'0.891'
p245
tp246
a(S'thanking'
p247
S'0.891'
p248
tp249
a(S'pleasant'
p250
S'0.891'
p251
tp252
a(S'majestic'
p253
S'0.891'
p254
tp255
a(S'excellence'
p256
S'0.891'
p257
tp258
a(S'sohappy'
p259
S'0.883'
p260
tp261
a(S'perfect'
p262
S'0.883'
p263
tp264
a(S'pretty'
p265
S'0.883'
p266
tp267
a(S'fun'
p268
S'0.883'
p269
tp270
a(S'prestige'
p271
S'0.883'
p272
tp273
a(S'glamour'
p274
S'0.883'
p275
tp276
a(S'yaay'
p277
S'0.883'
p278
tp279
a(S'inspiring'
p280
S'0.875'
p281
tp282
a(S'lovely'
p283
S'0.875'
p284
tp285
a(S'yayyyy'
p286
S'0.875'
p287
tp288
a(S'gooooood'
p289
S'0.875'
p290
tp291
a(S'favorite'
p292
S'0.875'
p293
tp294
a(S'elegant'
p295
S'0.875'
p296
tp297
a(S'hi-5'
p298
S'0.875'
p299
tp300
a(S'happygirl'
p301
S'0.875'
p302
tp303
a(S'cheer'
p304
S'0.875'
p305
tp306
a(S'interesting'
p307
S'0.875'
p308
tp309
a(S'priceless'
p310
S'0.875'
p311
tp312
a(S'talent'
p313
S'0.875'
p314
tp315
a(S'enjoying'
p316
S'0.875'
p317
tp318
a(S'birthday'
p319
S'0.867'
p320
tp321
a(S'elegance'
p322
S'0.867'
p323
tp324
a(S'hope'
p325
S'0.867'
p326
tp327
a(S'smiles'
p328
S'0.867'
p329
tp330
a(S'kind'
p331
S'0.867'
p332
tp333
a(S'awesome'
p334
S'0.867'
p335
tp336
a(S'encouraging'
p337
S'0.867'
p338
tp339
a(S'laugh'
p340
S'0.867'
p341
tp342
a(S'wow'
p343
S'0.867'
p344
tp345
a(S'happy'
p346
S'0.867'
p347
tp348
a(S'great'
p349
S'0.867'
p350
tp351
a(S'exciting'
p352
S'0.867'
p353
tp354
a(S'socomfy'
p355
S'0.867'
p356
tp357
a(S'feelinggood'
p358
S'0.867'
p359
tp360
a(S'approve'
p361
S'0.867'
p362
tp363
a(S'cuteeee'
p364
S'0.859'
p365
tp366
a(S'gracias'
p367
S'0.859'
p368
tp369
a(S'motivated'
p370
S'0.859'
p371
tp372
a(S'nice'
p373
S'0.859'
p374
tp375
a(S'xoxo'
p376
S'0.859'
p377
tp378
a(S'gooood'
p379
S'0.859'
p380
tp381
a(S'garden'
p382
S'0.859'
p383
tp384
a(S'angel'
p385
S'0.859'
p386
tp387
a(S'superfriends'
p388
S'0.859'
p389
tp390
a(S'yeah'
p391
S'0.859'
p392
tp393
a(S'appreciated'
p394
S'0.852'
p395
tp396
a(S'yummy'
p397
S'0.852'
p398
tp399
a(S'honored'
p400
S'0.852'
p401
tp402
a(S'faith'
p403
S'0.852'
p404
tp405
a(S'passion'
p406
S'0.852'
p407
tp408
a(S'sweetest'
p409
S'0.852'
p410
tp411
a(S'wooooo'
p412
S'0.852'
p413
tp414
a(S'partyon'
p415
S'0.852'
p416
tp417
a(S'adorable'
p418
S'0.852'
p419
tp420
a(S'pleased'
p421
S'0.852'
p422
tp423
a(S'smiles'
p424
S'0.844'
p425
tp426
a(S'enjoy'
p427
S'0.844'
p428
tp429
a(S'summer'
p430
S'0.844'
p431
tp432
a(S'dazzling'
p433
S'0.844'
p434
tp435
a(S'respect'
p436
S'0.844'
p437
tp438
a(S'appreciate'
p439
S'0.844'
p440
tp441
a(S'absolutely'
p442
S'0.844'
p443
tp444
a(S'woot'
p445
S'0.844'
p446
tp447
a(S'bday'
p448
S'0.844'
p449
tp450
a(S'relaxed'
p451
S'0.844'
p452
tp453
a(S'smile'
p454
S'0.844'
p455
tp456
a(S'sunny'
p457
S'0.844'
p458
tp459
a(S'beautiful'
p460
S'0.844'
p461
tp462
a(S'congrats'
p463
S'0.844'
p464
tp465
a(S'yayy'
p466
S'0.844'
p467
tp468
a(S'smilin'
p469
S'0.844'
p470
tp471
a(S'totally'
p472
S'0.844'
p473
tp474
a(S'party'
p475
S'0.844'
p476
tp477
a(S'gratitude'
p478
S'0.836'
p479
tp480
a(S'w00t'
p481
S'0.836'
p482
tp483
a(S'luck'
p484
S'0.836'
p485
tp486
a(S'support'
p487
S'0.836'
p488
tp489
a(S'faves'
p490
S'0.836'
p491
tp492
a(S'woooo'
p493
S'0.836'
p494
tp495
a(S'kudos'
p496
S'0.836'
p497
tp498
a(S';-)'
p499
S'0.836'
p500
tp501
a(S'grin'
p502
S'0.836'
p503
tp504
a(S'dreamy'
p505
S'0.836'
p506
tp507
a(S'yaaay'
p508
S'0.836'
p509
tp510
a(S'smiling'
p511
S'0.836'
p512
tp513
a(S'refreshing'
p514
S'0.836'
p515
tp516
a(S'vip'
p517
S'0.836'
p518
tp519
a(S'play'
p520
S'0.836'
p521
tp522
a(S'freshly'
p523
S'0.836'
p524
tp525
a(S'coolest'
p526
S'0.836'
p527
tp528
a(S'amusing'
p529
S'0.828'
p530
tp531
a(S'lmao'
p532
S'0.828'
p533
tp534
a(S'truth'
p535
S'0.828'
p536
tp537
a(S'good'
p538
S'0.828'
p539
tp540
a(S'excitedddd'
p541
S'0.828'
p542
tp543
a(S'pleasure'
p544
S'0.828'
p545
tp546
a(S'compliment'
p547
S'0.828'
p548
tp549
a(S'goooodnight'
p550
S'0.828'
p551
tp552
a(S'partytime'
p553
S'0.828'
p554
tp555
a(S'terrific'
p556
S'0.828'
p557
tp558
a(S'lovin'
p559
S'0.828'
p560
tp561
a(S'cant'
p562
S'waitttt'
p563
tp564
a(S'apreciate'
p565
S'0.828'
p566
tp567
a(S"g'morning"
p568
S'0.828'
p569
tp570
a(S'sunnny'
p571
S'0.828'
p572
tp573
a(S'talented'
p574
S'0.828'
p575
tp576
a(S"good'night"
p577
S'0.828'
p578
tp579
a(S'apprecaite'
p580
S'0.828'
p581
tp582
a(S'greetings'
p583
S'0.82'
p584
tp585
a(S'glad'
p586
S'0.82'
p587
tp588
a(S'family'
p589
S'0.82'
p590
tp591
a(S'excited'
p592
S'0.82'
p593
tp594
a(S'lovelife'
p595
S'0.82'
p596
tp597
a(S'care'
p598
S'0.82'
p599
tp600
a(S'amused'
p601
S'0.82'
p602
tp603
a(S'poise'
p604
S'0.82'
p605
tp606
a(S'makeup'
p607
S'0.813'
p608
tp609
a(S'won'
p610
S'0.813'
p611
tp612
a(S'cooperation'
p613
S'0.813'
p614
tp615
a(S'woho'
p616
S'0.813'
p617
tp618
a(S'hehehehe'
p619
S'0.813'
p620
tp621
a(S'fine'
p622
S'0.813'
p623
tp624
a(S'nicely'
p625
S'0.813'
p626
tp627
a(S'yeyy'
p628
S'0.813'
p629
tp630
a(S'<33'
p631
S'0.813'
p632
tp633
a(S'cheers'
p634
S'0.813'
p635
tp636
a(S'funny'
p637
S'0.813'
p638
tp639
a(S'stimulate'
p640
S'0.805'
p641
tp642
a(S'fitness'
p643
S'0.805'
p644
tp645
a(S'hahaha'
p646
S'0.805'
p647
tp648
a(S'sharing'
p649
S'0.805'
p650
tp651
a(S"fabulous'nis"
p652
S'0.805'
p653
tp654
a(S'giggle'
p655
S'0.805'
p656
tp657
a(S'no'
p658
S'problemm'
p659
tp660
a(S'thankyou'
p661
S'0.805'
p662
tp663
a(S'fresh'
p664
S'0.805'
p665
tp666
a(S'howdy'
p667
S'0.805'
p668
tp669
a(S'afford'
p670
S'0.797'
p671
tp672
a(S'inspired'
p673
S'0.797'
p674
tp675
a(S'music'
p676
S'0.797'
p677
tp678
a(S'weee'
p679
S'0.797'
p680
tp681
a(S'yays'
p682
S'0.797'
p683
tp684
a(S'kewl'
p685
S'0.797'
p686
tp687
a(S'feelings'
p688
S'0.797'
p689
tp690
a(S'stoked'
p691
S'0.797'
p692
tp693
a(S'wedding'
p694
S'0.797'
p695
tp696
a(S'child'
p697
S'0.789'
p698
tp699
a(S'woo'
p700
S'0.789'
p701
tp702
a(S'wish'
p703
S'0.789'
p704
tp705
a(S'friends'
p706
S'0.789'
p707
tp708
a(S'rich'
p709
S'0.789'
p710
tp711
a(S'better'
p712
S'0.789'
p713
tp714
a(S'acoustic'
p715
S'0.789'
p716
tp717
a(S'yessss'
p718
S'0.789'
p719
tp720
a(S'thank'
p721
S'0.789'
p722
tp723
a(S'birffday'
p724
S'0.789'
p725
tp726
a(S'confident'
p727
S'0.789'
p728
tp729
a(S'handsome'
p730
S'0.789'
p731
tp732
a(S'yayyy'
p733
S'0.781'
p734
tp735
a(S'safe'
p736
S'0.781'
p737
tp738
a(S'cool'
p739
S'0.781'
p740
tp741
a(S'fondly'
p742
S'0.781'
p743
tp744
a(S'girl'
p745
S'0.781'
p746
tp747
a(S'unique'
p748
S'0.781'
p749
tp750
a(S'free'
p751
S'0.781'
p752
tp753
a(S'rockin'
p754
S'0.773'
p755
tp756
a(S'dad'
p757
S'0.773'
p758
tp759
a(S'peace'
p760
S'0.773'
p761
tp762
a(S'accept'
p763
S'0.773'
p764
tp765
a(S'no'
p766
S'probs'
p767
tp768
a(S'thx'
p769
S'0.773'
p770
tp771
a(S'lmaoo'
p772
S'0.773'
p773
tp774
a(S'awards'
p775
S'0.773'
p776
tp777
a(S'relaxed'
p778
S'0.773'
p779
tp780
a(S'teach'
p781
S'0.773'
p782
tp783
a(S'no'
p784
S'problems'
p785
tp786
a(S'yeay'
p787
S'0.773'
p788
tp789
a(S'focused'
p790
S'0.766'
p791
tp792
a(S'thanx'
p793
S'0.766'
p794
tp795
a(S'share'
p796
S'0.766'
p797
tp798
a(S'promote'
p799
S'0.766'
p800
tp801
a(S'brightening'
p802
S'0.766'
p803
tp804
a(S'heehee'
p805
S'0.766'
p806
tp807
a(S'<3'
p808
S'0.766'
p809
tp810
a(S'chillin'
p811
S'0.766'
p812
tp813
a(S'hearty'
p814
S'0.766'
p815
tp816
a(S'thankyouuu'
p817
S'0.766'
p818
tp819
a(S'yey'
p820
S'0.766'
p821
tp822
a(S'indeed'
p823
S'0.766'
p824
tp825
a(S'coool'
p826
S'0.766'
p827
tp828
a(S'clear-thinking'
p829
S'0.766'
p830
tp831
a(S'satisfied'
p832
S'0.766'
p833
tp834
a(S'eating'
p835
S'0.766'
p836
tp837
a(S'entertaining'
p838
S'0.758'
p839
tp840
a(S'yay'
p841
S'0.758'
p842
tp843
a(S'education'
p844
S'0.758'
p845
tp846
a(S'mothers'
p847
S'0.758'
p848
tp849
a(S'chocolate'
p850
S'0.758'
p851
tp852
a(S'yumm'
p853
S'0.758'
p854
tp855
a(S'cant'
p856
S'w8'
p857
tp858
a(S'wonder'
p859
S'0.758'
p860
tp861
a(S'vote'
p862
S'0.758'
p863
tp864
a(S'children'
p865
S'0.758'
p866
tp867
a(S'home-cooked'
p868
S'0.758'
p869
tp870
a(S'blush'
p871
S'0.758'
p872
tp873
a(S'relieve'
p874
S'0.758'
p875
tp876
a(S'luxury'
p877
S'0.758'
p878
tp879
a(S'clearly'
p880
S'0.758'
p881
tp882
a(S'art'
p883
S'0.758'
p884
tp885
a(S'cant'
p886
S'waitt'
p887
tp888
a(S'ready'
p889
S'0.758'
p890
tp891
a(S'topmodel'
p892
S'0.75'
p893
tp894
a(S'relaxation'
p895
S'0.75'
p896
tp897
a(S'babealert'
p898
S'0.75'
p899
tp900
a(S'yes'
p901
S'0.75'
p902
tp903
a(S':-)'
p904
S'0.75'
p905
tp906
a(S'no'
p907
S'homework'
p908
tp909
a(S'moment'
p910
S'0.75'
p911
tp912
a(S'interested'
p913
S'0.742'
p914
tp915
a(S'flirt'
p916
S'0.742'
p917
tp918
a(S'full'
p919
S'0.742'
p920
tp921
a(S'pleasantly'
p922
S'0.742'
p923
tp924
a(S'human'
p925
S'0.742'
p926
tp927
a(S'hee'
p928
S'0.742'
p929
tp930
a(S':)'
p931
S'0.742'
p932
tp933
a(S'leadership'
p934
S'0.742'
p935
tp936
a(S"can't"
p937
S'waiiit'
p938
tp939
a(S'catchy'
p940
S'0.742'
p941
tp942
a(S'recommended'
p943
S'0.742'
p944
tp945
a(S'not'
p946
S'shabby'
p947
tp948
a(S'giveaway'
p949
S'0.742'
p950
tp951
a(S'welcome'
p952
S'0.742'
p953
tp954
a(S'friend'
p955
S'0.742'
p956
tp957
a(S'hehehe'
p958
S'0.742'
p959
tp960
a(S'hahahaha'
p961
S'0.742'
p962
tp963
a(S'weekend'
p964
S'0.742'
p965
tp966
a(S'entertainment'
p967
S'0.742'
p968
tp969
a(S'endorsement'
p970
S'0.742'
p971
tp972
a(S'dreams'
p973
S'0.734'
p974
tp975
a(S'recommendation'
p976
S'0.734'
p977
tp978
a(S'face'
p979
S'0.734'
p980
tp981
a(S'cute'
p982
S'0.734'
p983
tp984
a(S"g'nite"
p985
S'0.734'
p986
tp987
a(S'recommend'
p988
S'0.734'
p989
tp990
a(S'not'
p991
S'trashy'
p992
tp993
a(S'thanks'
p994
S'0.734'
p995
tp996
a(S'well'
p997
S'0.734'
p998
tp999
a(S'band'
p1000
S'0.727'
p1001
tp1002
a(S'aww'
p1003
S'0.727'
p1004
tp1005
a(S"don't"
p1006
S'mind'
p1007
tp1008
a(S'hear'
p1009
S'0.727'
p1010
tp1011
a(S'mom'
p1012
S'0.727'
p1013
tp1014
a(S'humor'
p1015
S'0.727'
p1016
tp1017
a(S'get'
p1018
S'0.727'
p1019
tp1020
a(S'coooool'
p1021
S'0.727'
p1022
tp1023
a(S'innovation'
p1024
S'0.727'
p1025
tp1026
a(S'gotit'
p1027
S'0.727'
p1028
tp1029
a(S'whole'
p1030
S'0.727'
p1031
tp1032
a(S'certainty'
p1033
S'0.727'
p1034
tp1035
a(S'fans'
p1036
S'0.719'
p1037
tp1038
a(S'stillhoping'
p1039
S'0.719'
p1040
tp1041
a(S'star'
p1042
S'0.719'
p1043
tp1044
a(S'songs'
p1045
S'0.719'
p1046
tp1047
a(S'thankies'
p1048
S'0.719'
p1049
tp1050
a(S'th*nks'
p1051
S'0.719'
p1052
tp1053
a(S'agree'
p1054
S'0.719'
p1055
tp1056
a(S'hun'
p1057
S'0.719'
p1058
tp1059
a(S'everclear'
p1060
S'0.719'
p1061
tp1062
a(S'woke'
p1063
S'0.719'
p1064
tp1065
a(S'fan'
p1066
S'0.719'
p1067
tp1068
a(S"can't"
p1069
S'complain'
p1070
tp1071
a(S'breeze'
p1072
S'0.719'
p1073
tp1074
a(S"g'night"
p1075
S'0.719'
p1076
tp1077
a(S'littlethings'
p1078
S'0.719'
p1079
tp1080
a(S'let'
p1081
S'0.711'
p1082
tp1083
a(S'sure'
p1084
S'0.711'
p1085
tp1086
a(S'please'
p1087
S'0.711'
p1088
tp1089
a(S'lives'
p1090
S'0.711'
p1091
tp1092
a(S'justwhatineed'
p1093
S'0.711'
p1094
tp1095
a(S'wine'
p1096
S'0.711'
p1097
tp1098
a(S'join'
p1099
S'0.711'
p1100
tp1101
a(S'assure'
p1102
S'0.711'
p1103
tp1104
a(S'goodnight'
p1105
S'0.711'
p1106
tp1107
a(S':]'
p1108
S'0.711'
p1109
tp1110
a(S'refreshed'
p1111
S'0.711'
p1112
tp1113
a(S'wanted'
p1114
S'0.711'
p1115
tp1116
a(S'watching'
p1117
S'0.703'
p1118
tp1119
a(S'haha'
p1120
S'0.703'
p1121
tp1122
a(S'introduce'
p1123
S'0.703'
p1124
tp1125
a(S'(:'
p1126
S'0.703'
p1127
tp1128
a(S'new'
p1129
S'0.703'
p1130
tp1131
a(S'promoz'
p1132
S'0.703'
p1133
tp1134
a(S'absolute'
p1135
S'0.703'
p1136
tp1137
a(S'not'
p1138
S'boring'
p1139
tp1140
a(S'keep'
p1141
S'0.703'
p1142
tp1143
a(S'breakfast'
p1144
S'0.703'
p1145
tp1146
a(S'surprises'
p1147
S'0.695'
p1148
tp1149
a(S'thnx'
p1150
S'0.695'
p1151
tp1152
a(S'no'
p1153
S'worrys'
p1154
tp1155
a(S'think'
p1156
S'0.695'
p1157
tp1158
a(S'no'
p1159
S'rush'
p1160
tp1161
a(S'endorsements'
p1162
S'0.695'
p1163
tp1164
a(S'not'
p1165
S'bad'
p1166
tp1167
a(S'reading'
p1168
S'0.695'
p1169
tp1170
a(S'right'
p1171
S'0.695'
p1172
tp1173
a(S'innocent'
p1174
S'0.695'
p1175
tp1176
a(S'look'
p1177
S'0.695'
p1178
tp1179
a(S'got'
p1180
S'0.695'
p1181
tp1182
a(S'no'
p1183
S'problemo'
p1184
tp1185
a(S'no'
p1186
S'damage'
p1187
tp1188
a(S'awake'
p1189
S'0.695'
p1190
tp1191
a(S'twitterverse'
p1192
S'0.695'
p1193
tp1194
a(S'no'
p1195
S'hurry'
p1196
tp1197
a(S'proper'
p1198
S'0.695'
p1199
tp1200
a(S'inventive'
p1201
S'0.688'
p1202
tp1203
a(S'no'
p1204
S'biggie'
p1205
tp1206
a(S'anytime'
p1207
S'0.688'
p1208
tp1209
a(S'okay'
p1210
S'0.688'
p1211
tp1212
a(S'hahah'
p1213
S'0.688'
p1214
tp1215
a(S'visit'
p1216
S'0.688'
p1217
tp1218
a(S"can't"
p1219
S'waaait'
p1220
tp1221
a(S'money'
p1222
S'0.68'
p1223
tp1224
a(S'relationship'
p1225
S'0.68'
p1226
tp1227
a(S'not'
p1228
S'complaining'
p1229
tp1230
a(S'joke'
p1231
S'0.68'
p1232
tp1233
a(S'rolemodel'
p1234
S'0.68'
p1235
tp1236
a(S'actually'
p1237
S'0.68'
p1238
tp1239
a(S'want'
p1240
S'0.68'
p1241
tp1242
a(S'home-based'
p1243
S'0.68'
p1244
tp1245
a(S'coffee'
p1246
S'0.68'
p1247
tp1248
a(S'unique'
p1249
S'0.68'
p1250
tp1251
a(S'not'
p1252
S'sad'
p1253
tp1254
a(S'lots'
p1255
S'0.68'
p1256
tp1257
a(S'unselfish'
p1258
S'0.68'
p1259
tp1260
a(S'getting'
p1261
S'0.68'
p1262
tp1263
a(S'expect'
p1264
S'0.68'
p1265
tp1266
a(S'smexy'
p1267
S'0.68'
p1268
tp1269
a(S'no'
p1270
S'problem'
p1271
tp1272
a(S'whoo'
p1273
S'0.672'
p1274
tp1275
a(S'yep'
p1276
S'0.672'
p1277
tp1278
a(S'thinking'
p1279
S'0.672'
p1280
tp1281
a(S'striving'
p1282
S'0.672'
p1283
tp1284
a(S'inaperfectworld'
p1285
S'0.672'
p1286
tp1287
a(S'playing'
p1288
S'0.672'
p1289
tp1290
a(S'tnx'
p1291
S'0.672'
p1292
tp1293
a(S'watchin'
p1294
S'0.672'
p1295
tp1296
a(S':p'
p1297
S'0.672'
p1298
tp1299
a(S'jan1st'
p1300
S'0.672'
p1301
tp1302
a(S'celebrity'
p1303
S'0.672'
p1304
tp1305
a(S'afternoon'
p1306
S'0.664'
p1307
tp1308
a(S'recommends'
p1309
S'0.664'
p1310
tp1311
a(S'anyway'
p1312
S'0.664'
p1313
tp1314
a(S'uncomplaining'
p1315
S'0.664'
p1316
tp1317
a(S'reply'
p1318
S'0.664'
p1319
tp1320
a(S'bought'
p1321
S'0.664'
p1322
tp1323
a(S'top'
p1324
S'0.664'
p1325
tp1326
a(S'catch'
p1327
S'0.664'
p1328
tp1329
a(S"hasn't"
p1330
S'aged'
p1331
tp1332
a(S'teehee'
p1333
S'0.664'
p1334
tp1335
a(S'hola'
p1336
S'0.664'
p1337
tp1338
a(S'give'
p1339
S'0.664'
p1340
tp1341
a(S"mother's"
p1342
S'0.664'
p1343
tp1344
a(S'tuned'
p1345
S'0.656'
p1346
tp1347
a(S'girls'
p1348
S'0.656'
p1349
tp1350
a(S'told'
p1351
S'0.656'
p1352
tp1353
a(S'ciao'
p1354
S'0.656'
p1355
tp1356
a(S'ha'
p1357
S'0.656'
p1358
tp1359
a(S'person'
p1360
S'0.656'
p1361
tp1362
a(S'alright'
p1363
S'0.656'
p1364
tp1365
a(S'cant'
p1366
S'wiat'
p1367
tp1368
a(S';)'
p1369
S'0.656'
p1370
tp1371
a(S'baby'
p1372
S'0.656'
p1373
tp1374
a(S'bed'
p1375
S'0.656'
p1376
tp1377
a(S'people'
p1378
S'0.656'
p1379
tp1380
a(S'nighty'
p1381
S'0.648'
p1382
tp1383
a(S"doesn't"
p1384
S'hurt'
p1385
tp1386
a(S'no'
p1387
S'hassle'
p1388
tp1389
a(S'honestly'
p1390
S'0.648'
p1391
tp1392
a(S'possibly'
p1393
S'0.648'
p1394
tp1395
a(S'tweet'
p1396
S'0.648'
p1397
tp1398
a(S'morning'
p1399
S'0.648'
p1400
tp1401
a(S'hey'
p1402
S'0.648'
p1403
tp1404
a(S'yup'
p1405
S'0.648'
p1406
tp1407
a(S'boutique'
p1408
S'0.648'
p1409
tp1410
a(S'grow'
p1411
S'0.648'
p1412
tp1413
a(S'looks'
p1414
S'0.648'
p1415
tp1416
a(S'ballerina'
p1417
S'0.641'
p1418
tp1419
a(S'tell'
p1420
S'0.641'
p1421
tp1422
a(S'omg'
p1423
S'0.641'
p1424
tp1425
a(S'message'
p1426
S'0.641'
p1427
tp1428
a(S'pics'
p1429
S'0.641'
p1430
tp1431
a(S'interview'
p1432
S'0.641'
p1433
tp1434
a(S'boogie'
p1435
S'0.641'
p1436
tp1437
a(S'nothing'
p1438
S'compares'
p1439
tp1440
a(S'kids'
p1441
S'0.641'
p1442
tp1443
a(S'brains'
p1444
S'0.641'
p1445
tp1446
a(S'add'
p1447
S'0.641'
p1448
tp1449
a(S'years'
p1450
S'0.641'
p1451
tp1452
a(S'no'
p1453
S'worries'
p1454
tp1455
a(S'nothing'
p1456
S'beats'
p1457
tp1458
a(S'not'
p1459
S'disappoint'
p1460
tp1461
a(S'grown'
p1462
S'0.641'
p1463
tp1464
a(S'name'
p1465
S'0.641'
p1466
tp1467
a(S'affirmation'
p1468
S'0.633'
p1469
tp1470
a(S'ooh'
p1471
S'0.633'
p1472
tp1473
a(S'wanna'
p1474
S'0.633'
p1475
tp1476
a(S'class'
p1477
S'0.633'
p1478
tp1479
a(S'finally'
p1480
S'0.633'
p1481
tp1482
a(S'bacon'
p1483
S'0.633'
p1484
tp1485
a(S'sort'
p1486
S'0.633'
p1487
tp1488
a(S'no'
p1489
S'mistakes'
p1490
tp1491
a(S'beachbody'
p1492
S'0.633'
p1493
tp1494
a(S'fam'
p1495
S'0.633'
p1496
tp1497
a(S'thought'
p1498
S'0.633'
p1499
tp1500
a(S'meet'
p1501
S'0.633'
p1502
tp1503
a(S'immune'
p1504
S'0.633'
p1505
tp1506
a(S'stay'
p1507
S'0.633'
p1508
tp1509
a(S'tweeting'
p1510
S'0.633'
p1511
tp1512
a(S'watch'
p1513
S'0.633'
p1514
tp1515
a(S'not'
p1516
S'picky'
p1517
tp1518
a(S'shout-out'
p1519
S'0.633'
p1520
tp1521
a(S'hot'
p1522
S'0.633'
p1523
tp1524
a(S'lunch'
p1525
S'0.633'
p1526
tp1527
a(S'no'
p1528
S'complaints'
p1529
tp1530
a(S'link'
p1531
S'0.625'
p1532
tp1533
a(S'home'
p1534
S'0.625'
p1535
tp1536
a(S'sunset'
p1537
S'0.625'
p1538
tp1539
a(S'not'
p1540
S'lame'
p1541
tp1542
a(S'met'
p1543
S'0.625'
p1544
tp1545
a(S'customer'
p1546
S'0.625'
p1547
tp1548
a(S'smashing'
p1549
S'0.625'
p1550
tp1551
a(S'not'
p1552
S'confusing'
p1553
tp1554
a(S'recommendations'
p1555
S'0.625'
p1556
tp1557
a(S'included'
p1558
S'0.625'
p1559
tp1560
a(S'lol'
p1561
S'0.625'
p1562
tp1563
a(S'idea'
p1564
S'0.625'
p1565
tp1566
a(S'deserve'
p1567
S'0.625'
p1568
tp1569
a(S'no'
p1570
S'negative'
p1571
tp1572
a(S"couldn't"
p1573
S'resist'
p1574
tp1575
a(S'peek'
p1576
S'0.617'
p1577
tp1578
a(S'nite'
p1579
S'0.617'
p1580
tp1581
a(S'nowadays'
p1582
S'0.617'
p1583
tp1584
a(S'eat'
p1585
S'0.617'
p1586
tp1587
a(S'nothing'
p1588
S'better'
p1589
tp1590
a(S'expert'
p1591
S'0.617'
p1592
tp1593
a(S'making'
p1594
S'0.617'
p1595
tp1596
a(S'heheh'
p1597
S'0.617'
p1598
tp1599
a(S'photos'
p1600
S'0.617'
p1601
tp1602
a(S'not'
p1603
S'selfish'
p1604
tp1605
a(S'wants'
p1606
S'0.609'
p1607
tp1608
a(S'apologize'
p1609
S'0.609'
p1610
tp1611
a(S'brothers'
p1612
S'0.609'
p1613
tp1614
a(S"haven't"
p1615
S'heard'
p1616
tp1617
a(S'sleep'
p1618
S'0.609'
p1619
tp1620
a(S'guitar'
p1621
S'0.609'
p1622
tp1623
a(S":')"
p1624
S'0.609'
p1625
tp1626
a(S'probably'
p1627
S'0.609'
p1628
tp1629
a(S'rich'
p1630
S'0.609'
p1631
tp1632
a(S'pic'
p1633
S'0.609'
p1634
tp1635
a(S'subscribe'
p1636
S'0.602'
p1637
tp1638
a(S'tips'
p1639
S'0.602'
p1640
tp1641
a(S'giveaway'
p1642
S'0.602'
p1643
tp1644
a(S'life'
p1645
S'0.602'
p1646
tp1647
a(S'continue'
p1648
S'0.602'
p1649
tp1650
a(S'call'
p1651
S'0.602'
p1652
tp1653
a(S'obviously'
p1654
S'0.602'
p1655
tp1656
a(S'style'
p1657
S'0.602'
p1658
tp1659
a(S'chai'
p1660
S'0.602'
p1661
tp1662
a(S're-tweets'
p1663
S'0.602'
p1664
tp1665
a(S'young'
p1666
S'0.602'
p1667
tp1668
a(S"can't"
p1669
S'wait'
p1670
tp1671
a(S'excerpt'
p1672
S'0.602'
p1673
tp1674
a(S'evening'
p1675
S'0.602'
p1676
tp1677
a(S'catchya'
p1678
S'0.602'
p1679
tp1680
a(S'following'
p1681
S'0.602'
p1682
tp1683
a(S'school'
p1684
S'0.602'
p1685
tp1686
a(S'featured'
p1687
S'0.594'
p1688
tp1689
a(S'movie'
p1690
S'0.594'
p1691
tp1692
a(S'find'
p1693
S'0.594'
p1694
tp1695
a(S'not'
p1696
S'embarrassed'
p1697
tp1698
a(S'np'
p1699
S'0.594'
p1700
tp1701
a(S'females'
p1702
S'0.594'
p1703
tp1704
a(S'food'
p1705
S'0.594'
p1706
tp1707
a(S'hehe'
p1708
S'0.594'
p1709
tp1710
a(S'muahahah'
p1711
S'0.594'
p1712
tp1713
a(S'rhymed'
p1714
S'0.594'
p1715
tp1716
a(S'question'
p1717
S'0.594'
p1718
tp1719
a(S'alrighty'
p1720
S'0.594'
p1721
tp1722
a(S'asked'
p1723
S'0.594'
p1724
tp1725
a(S'dinner'
p1726
S'0.594'
p1727
tp1728
a(S'see'
p1729
S'0.594'
p1730
tp1731
a(S'learn'
p1732
S'0.594'
p1733
tp1734
a(S'student'
p1735
S'0.594'
p1736
tp1737
a(S"didn't"
p1738
S'crash'
p1739
tp1740
a(S'read'
p1741
S'0.594'
p1742
tp1743
a(S'hair'
p1744
S'0.594'
p1745
tp1746
a(S'ok'
p1747
S'0.594'
p1748
tp1749
a(S'precede'
p1750
S'0.594'
p1751
tp1752
a(S'song'
p1753
S'0.594'
p1754
tp1755
a(S'followers'
p1756
S'0.594'
p1757
tp1758
a(S'feel'
p1759
S'0.594'
p1760
tp1761
a(S'based'
p1762
S'0.594'
p1763
tp1764
a(S"don't"
p1765
S'worry'
p1766
tp1767
a(S'found'
p1768
S'0.594'
p1769
tp1770
a(S'wit'
p1771
S'0.594'
p1772
tp1773
a(S'whoops'
p1774
S'0.594'
p1775
tp1776
a(S'bbq'
p1777
S'0.594'
p1778
tp1779
a(S'lmfao'
p1780
S'0.594'
p1781
tp1782
a(S'female'
p1783
S'0.594'
p1784
tp1785
a(S'car'
p1786
S'0.586'
p1787
tp1788
a(S'early'
p1789
S'0.586'
p1790
tp1791
a(S'weather'
p1792
S'0.586'
p1793
tp1794
a(S'fly'
p1795
S'0.586'
p1796
tp1797
a(S'tweets'
p1798
S'0.586'
p1799
tp1800
a(S'saw'
p1801
S'0.586'
p1802
tp1803
a(S'breath'
p1804
S'0.586'
p1805
tp1806
a(S'discreet'
p1807
S'0.586'
p1808
tp1809
a(S'check'
p1810
S'0.586'
p1811
tp1812
a(S'sassy'
p1813
S'0.586'
p1814
tp1815
a(S'went'
p1816
S'0.586'
p1817
tp1818
a(S'asking'
p1819
S'0.586'
p1820
tp1821
a(S'start'
p1822
S'0.586'
p1823
tp1824
a(S'oh'
p1825
S'0.586'
p1826
tp1827
a(S'way'
p1828
S'0.586'
p1829
tp1830
a(S'no'
p1831
S'doubt'
p1832
tp1833
a(S'real'
p1834
S'0.586'
p1835
tp1836
a(S'night'
p1837
S'0.578'
p1838
tp1839
a(S'indigenous'
p1840
S'0.578'
p1841
tp1842
a(S'busy'
p1843
S'0.578'
p1844
tp1845
a(S'hardwork'
p1846
S'0.578'
p1847
tp1848
a(S'constantly'
p1849
S'0.578'
p1850
tp1851
a(S'seriously'
p1852
S'0.578'
p1853
tp1854
a(S'heya'
p1855
S'0.578'
p1856
tp1857
a(S'never'
p1858
S'hated'
p1859
tp1860
a(S'text'
p1861
S'0.578'
p1862
tp1863
a(S'not'
p1864
S'alone'
p1865
tp1866
a(S'updates'
p1867
S'0.578'
p1868
tp1869
a(S'self'
p1870
S'0.578'
p1871
tp1872
a(S'poem'
p1873
S'0.578'
p1874
tp1875
a(S'skincare'
p1876
S'0.578'
p1877
tp1878
a(S'tea'
p1879
S'0.578'
p1880
tp1881
a(S'books'
p1882
S'0.578'
p1883
tp1884
a(S'try'
p1885
S'0.578'
p1886
tp1887
a(S'not'
p1888
S'obsessed'
p1889
tp1890
a(S'pregnant'
p1891
S'0.57'
p1892
tp1893
a(S'remember'
p1894
S'0.57'
p1895
tp1896
a(S"can't"
p1897
S'refuse'
p1898
tp1899
a(S'heh'
p1900
S'0.57'
p1901
tp1902
a(S'no'
p1903
S'prob'
p1904
tp1905
a(S'bank'
p1906
S'0.57'
p1907
tp1908
a(S'course'
p1909
S'0.57'
p1910
tp1911
a(S'job'
p1912
S'0.57'
p1913
tp1914
a(S'decision'
p1915
S'0.57'
p1916
tp1917
a(S'gotta'
p1918
S'0.57'
p1919
tp1920
a(S'writing'
p1921
S'0.57'
p1922
tp1923
a(S'made'
p1924
S'0.57'
p1925
tp1926
a(S'guys'
p1927
S'0.563'
p1928
tp1929
a(S'not'
p1930
S'weird'
p1931
tp1932
a(S'points'
p1933
S'0.563'
p1934
tp1935
a(S'villa'
p1936
S'0.563'
p1937
tp1938
a(S'attention'
p1939
S'0.563'
p1940
tp1941
a(S'boy'
p1942
S'0.563'
p1943
tp1944
a(S'not'
p1945
S'dissapoint'
p1946
tp1947
a(S'gawjuss'
p1948
S'0.563'
p1949
tp1950
a(S"can't"
p1951
S'fall'
p1952
tp1953
a(S'point'
p1954
S'0.563'
p1955
tp1956
a(S"can't"
p1957
S'beat'
p1958
tp1959
a(S'push'
p1960
S'0.563'
p1961
tp1962
a(S'quote'
p1963
S'0.563'
p1964
tp1965
a(S'plan'
p1966
S'0.563'
p1967
tp1968
a(S'thing'
p1969
S'0.563'
p1970
tp1971
a(S'amount'
p1972
S'0.563'
p1973
tp1974
a(S'wash'
p1975
S'0.563'
p1976
tp1977
a(S'put'
p1978
S'0.555'
p1979
tp1980
a(S'house'
p1981
S'0.555'
p1982
tp1983
a(S'help'
p1984
S'0.555'
p1985
tp1986
a(S'cd'
p1987
S'0.555'
p1988
tp1989
a(S'needcuddles'
p1990
S'0.555'
p1991
tp1992
a(S'no'
p1993
S'trouble'
p1994
tp1995
a(S'hide'
p1996
S'0.555'
p1997
tp1998
a(S'bet'
p1999
S'0.555'
p2000
tp2001
a(S'ya'
p2002
S'0.555'
p2003
tp2004
a(S'man'
p2005
S'0.555'
p2006
tp2007
a(S'project'
p2008
S'0.555'
p2009
tp2010
a(S'looking'
p2011
S'0.555'
p2012
tp2013
a(S'rock'
p2014
S'0.555'
p2015
tp2016
a(S'live'
p2017
S'0.555'
p2018
tp2019
a(S'says'
p2020
S'0.555'
p2021
tp2022
a(S'week'
p2023
S'0.555'
p2024
tp2025
a(S'wait'
p2026
S'0.555'
p2027
tp2028
a(S'long'
p2029
S'0.555'
p2030
tp2031
a(S'laughable'
p2032
S'0.555'
p2033
tp2034
a(S'buttrue'
p2035
S'0.555'
p2036
tp2037
a(S'cosmetics'
p2038
S'0.555'
p2039
tp2040
a(S'video'
p2041
S'0.555'
p2042
tp2043
a(S'sometimes'
p2044
S'0.547'
p2045
tp2046
a(S'things'
p2047
S'0.547'
p2048
tp2049
a(S'mmmmmm'
p2050
S'0.547'
p2051
tp2052
a(S'seen'
p2053
S'0.547'
p2054
tp2055
a(S'everytime'
p2056
S'0.547'
p2057
tp2058
a(S'done'
p2059
S'0.547'
p2060
tp2061
a(S'shopping'
p2062
S'0.547'
p2063
tp2064
a(S'answer'
p2065
S'0.547'
p2066
tp2067
a(S'days'
p2068
S'0.547'
p2069
tp2070
a(S'little'
p2071
S'0.547'
p2072
tp2073
a(S'dude'
p2074
S'0.547'
p2075
tp2076
a(S'game'
p2077
S'0.547'
p2078
tp2079
a(S'calling'
p2080
S'0.547'
p2081
tp2082
a(S'serious'
p2083
S'0.547'
p2084
tp2085
a(S'saying'
p2086
S'0.547'
p2087
tp2088
a(S'no'
p2089
S'school'
p2090
tp2091
a(S'never'
p2092
S'hurts'
p2093
tp2094
a(S'tummy'
p2095
S'0.547'
p2096
tp2097
a(S'use'
p2098
S'0.539'
p2099
tp2100
a(S'no'
p2101
S'pressure'
p2102
tp2103
a(S'waiting'
p2104
S'0.539'
p2105
tp2106
a(S'trying'
p2107
S'0.539'
p2108
tp2109
a(S'short'
p2110
S'0.539'
p2111
tp2112
a(S'not'
p2113
S'random'
p2114
tp2115
a(S"doesn't"
p2116
S'mean'
p2117
tp2118
a(S'apologies'
p2119
S'0.539'
p2120
tp2121
a(S'world'
p2122
S'0.539'
p2123
tp2124
a(S'xxx'
p2125
S'0.539'
p2126
tp2127
a(S'rise'
p2128
S'0.539'
p2129
tp2130
a(S'talk'
p2131
S'0.539'
p2132
tp2133
a(S'wear'
p2134
S'0.539'
p2135
tp2136
a(S'sign'
p2137
S'0.539'
p2138
tp2139
a(S'time'
p2140
S'0.539'
p2141
tp2142
a(S'thinks'
p2143
S'0.531'
p2144
tp2145
a(S'blog'
p2146
S'0.531'
p2147
tp2148
a(S'bit'
p2149
S'0.531'
p2150
tp2151
a(S'middleclass'
p2152
S'0.531'
p2153
tp2154
a(S'grammar'
p2155
S'0.531'
p2156
tp2157
a(S'videos'
p2158
S'0.531'
p2159
tp2160
a(S'park'
p2161
S'0.531'
p2162
tp2163
a(S'room'
p2164
S'0.531'
p2165
tp2166
a(S'listening'
p2167
S'0.531'
p2168
tp2169
a(S'realize'
p2170
S'0.531'
p2171
tp2172
a(S'chat'
p2173
S'0.531'
p2174
tp2175
a(S'miss'
p2176
S'0.531'
p2177
tp2178
a(S'unhook'
p2179
S'0.531'
p2180
tp2181
a(S'no'
p2182
S'lie'
p2183
tp2184
a(S'lot'
p2185
S'0.531'
p2186
tp2187
a(S'-_-'
p2188
S'0.531'
p2189
tp2190
a(S'make'
p2191
S'0.531'
p2192
tp2193
a(S'book'
p2194
S'0.531'
p2195
tp2196
a(S'defending'
p2197
S'0.531'
p2198
tp2199
a(S'moon'
p2200
S'0.531'
p2201
tp2202
a(S'not'
p2203
S'crazy'
p2204
tp2205
a(S'no'
p2206
S'harm'
p2207
tp2208
a(S'grammatical'
p2209
S'0.523'
p2210
tp2211
a(S'quotes'
p2212
S'0.523'
p2213
tp2214
a(S'mmm'
p2215
S'0.523'
p2216
tp2217
a(S'not'
p2218
S'confused'
p2219
tp2220
a(S'refund'
p2221
S'0.523'
p2222
tp2223
a(S'remove'
p2224
S'0.523'
p2225
tp2226
a(S'heey'
p2227
S'0.523'
p2228
tp2229
a(S'phone'
p2230
S'0.523'
p2231
tp2232
a(S"haven't"
p2233
S'fallen'
p2234
tp2235
a(S'show'
p2236
S'0.523'
p2237
tp2238
a(S'spelling'
p2239
S'0.523'
p2240
tp2241
a(S'not'
p2242
S'long'
p2243
tp2244
a(S'year'
p2245
S'0.523'
p2246
tp2247
a(S'acting'
p2248
S'0.523'
p2249
tp2250
a(S'no'
p2251
S'offense'
p2252
tp2253
a(S'introducing'
p2254
S'0.516'
p2255
tp2256
a(S'gonna'
p2257
S'0.516'
p2258
tp2259
a(S"haven't"
p2260
S'talked'
p2261
tp2262
a(S'team'
p2263
S'0.516'
p2264
tp2265
a(S'needed'
p2266
S'0.516'
p2267
tp2268
a(S'kinda'
p2269
S'0.516'
p2270
tp2271
a(S'nails'
p2272
S'0.516'
p2273
tp2274
a(S'feeling'
p2275
S'0.516'
p2276
tp2277
a(S'mouths'
p2278
S'0.516'
p2279
tp2280
a(S'grade'
p2281
S'0.516'
p2282
tp2283
a(S'dividends'
p2284
S'0.516'
p2285
tp2286
a(S'need'
p2287
S'0.516'
p2288
tp2289
a(S':o'
p2290
S'0.516'
p2291
tp2292
a(S'sortitout'
p2293
S'0.508'
p2294
tp2295
a(S'nearly'
p2296
S'0.508'
p2297
tp2298
a(S'post'
p2299
S'0.508'
p2300
tp2301
a(S'nonrandom'
p2302
S'0.508'
p2303
tp2304
a(S"don't"
p2305
S'talk'
p2306
tp2307
a(S'heading'
p2308
S'0.508'
p2309
tp2310
a(S'feedback'
p2311
S'0.508'
p2312
tp2313
a(S'guess'
p2314
S'0.508'
p2315
tp2316
a(S'guy'
p2317
S'0.508'
p2318
tp2319
a(S'sounds'
p2320
S'0.508'
p2321
tp2322
a(S'come'
p2323
S'0.508'
p2324
tp2325
a(S'no'
p2326
S'matter'
p2327
tp2328
a(S'-.-'
p2329
S'0.5'
p2330
tp2331
a(S'piece'
p2332
S'0.5'
p2333
tp2334
a(S'no'
p2335
S'mention'
p2336
tp2337
a(S'stop'
p2338
S'0.5'
p2339
tp2340
a(S'big'
p2341
S'0.5'
p2342
tp2343
a(S'apology'
p2344
S'0.5'
p2345
tp2346
a(S'no'
p2347
S'rain'
p2348
tp2349
a(S'working'
p2350
S'0.5'
p2351
tp2352
a(S'never'
p2353
S'smelt'
p2354
tp2355
a(S'send'
p2356
S'0.5'
p2357
tp2358
a(S'mortar'
p2359
S'0.5'
p2360
tp2361
a(S"don't"
p2362
S'steal'
p2363
tp2364
a(S'know'
p2365
S'0.5'
p2366
tp2367
a(S'coming'
p2368
S'0.492'
p2369
tp2370
a(S'never'
p2371
S'hit'
p2372
tp2373
a(S'huh'
p2374
S'0.492'
p2375
tp2376
a(S'rare'
p2377
S'0.492'
p2378
tp2379
a(S'teams'
p2380
S'0.492'
p2381
tp2382
a(S'behaviour'
p2383
S'0.492'
p2384
tp2385
a(S'pay'
p2386
S'0.492'
p2387
tp2388
a(S'say'
p2389
S'0.492'
p2390
tp2391
a(S'enough'
p2392
S'0.492'
p2393
tp2394
a(S'no'
p2395
S'hangover'
p2396
tp2397
a(S'not'
p2398
S'perfection'
p2399
tp2400
a(S'never'
p2401
S'tasted'
p2402
tp2403
a(S'not'
p2404
S'planning'
p2405
tp2406
a(S'go'
p2407
S'0.492'
p2408
tp2409
a(S'act'
p2410
S'0.492'
p2411
tp2412
a(S'wanting'
p2413
S'0.492'
p2414
tp2415
a(S'train'
p2416
S'0.484'
p2417
tp2418
a(S'work'
p2419
S'0.484'
p2420
tp2421
a(S'unsurprising'
p2422
S'0.484'
p2423
tp2424
a(S'used'
p2425
S'0.484'
p2426
tp2427
a(S'public'
p2428
S'0.484'
p2429
tp2430
a(S'posted'
p2431
S'0.484'
p2432
tp2433
a(S'no'
p2434
S'boundaries'
p2435
tp2436
a(S'no'
p2437
S'idea'
p2438
tp2439
a(S'fierce'
p2440
S'0.484'
p2441
tp2442
a(S'rip'
p2443
S'0.484'
p2444
tp2445
a(S'dontyouhate'
p2446
S'0.484'
p2447
tp2448
a(S'email'
p2449
S'0.484'
p2450
tp2451
a(S'apologise'
p2452
S'0.484'
p2453
tp2454
a(S'later'
p2455
S'0.484'
p2456
tp2457
a(S'replacement'
p2458
S'0.477'
p2459
tp2460
a(S'excuse'
p2461
S'0.477'
p2462
tp2463
a(S'texting'
p2464
S'0.477'
p2465
tp2466
a(S'helpme'
p2467
S'0.477'
p2468
tp2469
a(S'times'
p2470
S'0.477'
p2471
tp2472
a(S'photo'
p2473
S'0.477'
p2474
tp2475
a(S'not'
p2476
S'looking'
p2477
tp2478
a(S"don't"
p2479
S'actually'
p2480
tp2481
a(S'give'
p2482
S'away'
p2483
tp2484
a(S'gotcha'
p2485
S'0.477'
p2486
tp2487
a(S'no'
p2488
S'drama'
p2489
tp2490
a(S'no'
p2491
S'thanks'
p2492
tp2493
a(S'yo'
p2494
S'0.477'
p2495
tp2496
a(S'social'
p2497
S'0.477'
p2498
tp2499
a(S'no'
p2500
S'plans'
p2501
tp2502
a(S'list'
p2503
S'0.477'
p2504
tp2505
a(S'ask'
p2506
S'0.477'
p2507
tp2508
a(S'dont'
p2509
S'overwork'
p2510
tp2511
a(S'forgiveme'
p2512
S'0.477'
p2513
tp2514
a(S'rain'
p2515
S'0.477'
p2516
tp2517
a(S'half'
p2518
S'0.469'
p2519
tp2520
a(S'shhh'
p2521
S'0.469'
p2522
tp2523
a(S'left'
p2524
S'0.469'
p2525
tp2526
a(S'comment'
p2527
S'0.469'
p2528
tp2529
a(S'take'
p2530
S'0.469'
p2531
tp2532
a(S"don't"
p2533
S'count'
p2534
tp2535
a(S"can't"
p2536
S'stop'
p2537
tp2538
a(S':|'
p2539
S'0.469'
p2540
tp2541
a(S'using'
p2542
S'0.469'
p2543
tp2544
a(S'outta'
p2545
S'0.469'
p2546
tp2547
a(S'taxes'
p2548
S'0.469'
p2549
tp2550
a(S'needs'
p2551
S'0.461'
p2552
tp2553
a(S'ppl'
p2554
S'0.461'
p2555
tp2556
a(S"don't"
p2557
S'tell'
p2558
tp2559
a(S"don't"
p2560
S'bite'
p2561
tp2562
a(S'no'
p2563
S'lines'
p2564
tp2565
a(S"doesn't"
p2566
S'dampen'
p2567
tp2568
a(S'not'
p2569
S'drinking'
p2570
tp2571
a(S':d'
p2572
S'0.461'
p2573
tp2574
a(S'follow'
p2575
S'0.461'
p2576
tp2577
a(S'last'
p2578
S'0.461'
p2579
tp2580
a(S'timestamp'
p2581
S'0.461'
p2582
tp2583
a(S"can't"
p2584
S'pass'
p2585
tp2586
a(S'hour'
p2587
S'0.461'
p2588
tp2589
a(S'mouth'
p2590
S'0.461'
p2591
tp2592
a(S'noticemepls'
p2593
S'0.461'
p2594
tp2595
a(S'not'
p2596
S'hatin'
p2597
tp2598
a(S'no'
p2599
S'wonder'
p2600
tp2601
a(S'cause'
p2602
S'0.453'
p2603
tp2604
a(S"don't"
p2605
S'feel'
p2606
tp2607
a(S'no'
p2608
S'competition'
p2609
tp2610
a(S'skin'
p2611
S'0.453'
p2612
tp2613
a(S'not'
p2614
S'gonna'
p2615
tp2616
a(S':s'
p2617
S'0.453'
p2618
tp2619
a(S'day'
p2620
S'0.453'
p2621
tp2622
a(S'story'
p2623
S'0.453'
p2624
tp2625
a(S'cough'
p2626
S'0.453'
p2627
tp2628
a(S'telling'
p2629
S'0.453'
p2630
tp2631
a(S'officiating'
p2632
S'0.453'
p2633
tp2634
a(S'age'
p2635
S'0.453'
p2636
tp2637
a(S'inexactly'
p2638
S'0.453'
p2639
tp2640
a(S'stuff'
p2641
S'0.453'
p2642
tp2643
a(S'refereeing'
p2644
S'0.453'
p2645
tp2646
a(S'throw'
p2647
S'0.445'
p2648
tp2649
a(S'no'
p2650
S'agenda'
p2651
tp2652
a(S'tonight'
p2653
S'0.445'
p2654
tp2655
a(S'old'
p2656
S'0.445'
p2657
tp2658
a(S'no'
p2659
S'charger'
p2660
tp2661
a(S'surrender'
p2662
S'0.445'
p2663
tp2664
a(S'help'
p2665
S'0.445'
p2666
tp2667
a(S'not'
p2668
S'used'
p2669
tp2670
a(S'unready'
p2671
S'0.445'
p2672
tp2673
a(S"don't"
p2674
S'look'
p2675
tp2676
a(S'not'
p2677
S'surprising'
p2678
tp2679
a(S'finished'
p2680
S'0.438'
p2681
tp2682
a(S'no'
p2683
S'mms'
p2684
tp2685
a(S'maybe'
p2686
S'0.438'
p2687
tp2688
a(S'not'
p2689
S'necessarily'
p2690
tp2691
a(S'whatever'
p2692
S'0.438'
p2693
tp2694
a(S'growup'
p2695
S'0.438'
p2696
tp2697
a(S"won't"
p2698
S'let'
p2699
tp2700
a(S"don't"
p2701
S'freak'
p2702
tp2703
a(S'nothing'
p2704
S'personal'
p2705
tp2706
a(S'skint'
p2707
S'0.438'
p2708
tp2709
a(S"don't"
p2710
S'put'
p2711
tp2712
a(S'website'
p2713
S'0.438'
p2714
tp2715
a(S'everyonelikesitbutme'
p2716
S'0.438'
p2717
tp2718
a(S'whoever'
p2719
S'0.438'
p2720
tp2721
a(S"can't"
p2722
S'watch'
p2723
tp2724
a(S"don't"
p2725
S'miss'
p2726
tp2727
a(S'close'
p2728
S'0.43'
p2729
tp2730
a(S"don't"
p2731
S'spoil'
p2732
tp2733
a(S"can't"
p2734
S'believe'
p2735
tp2736
a(S'not'
p2737
S'making'
p2738
tp2739
a(S'site'
p2740
S'0.43'
p2741
tp2742
a(S"haven't"
p2743
S'played'
p2744
tp2745
a(S"don't"
p2746
S'pay'
p2747
tp2748
a(S'works'
p2749
S'0.43'
p2750
tp2751
a(S'makes'
p2752
S'0.43'
p2753
tp2754
a(S'head'
p2755
S'0.43'
p2756
tp2757
a(S'not'
p2758
S'hook'
p2759
tp2760
a(S"can't"
p2761
S'wrap'
p2762
tp2763
a(S"don't"
p2764
S'sue'
p2765
tp2766
a(S'adverts'
p2767
S'0.43'
p2768
tp2769
a(S"don't"
p2770
S'treat'
p2771
tp2772
a(S'missed'
p2773
S'0.422'
p2774
tp2775
a(S'boreoff'
p2776
S'0.422'
p2777
tp2778
a(S':-d'
p2779
S'0.422'
p2780
tp2781
a(S"haven't"
p2782
S'seen'
p2783
tp2784
a(S'not'
p2785
S'sure'
p2786
tp2787
a(S"don't"
p2788
S'wash'
p2789
tp2790
a(S'selfmadesavagez'
p2791
S'0.422'
p2792
tp2793
a(S'hanging'
p2794
S'0.422'
p2795
tp2796
a(S'shut'
p2797
S'0.422'
p2798
tp2799
a(S'bored'
p2800
S'0.422'
p2801
tp2802
a(S'imported'
p2803
S'0.422'
p2804
tp2805
a(S'turnovers'
p2806
S'0.422'
p2807
tp2808
a(S'eh'
p2809
S'0.414'
p2810
tp2811
a(S'unsure'
p2812
S'0.414'
p2813
tp2814
a(S'not'
p2815
S'buying'
p2816
tp2817
a(S'no'
p2818
S'lag'
p2819
tp2820
a(S'd:'
p2821
S'0.414'
p2822
tp2823
a(S'smh'
p2824
S'0.414'
p2825
tp2826
a(S'explain'
p2827
S'0.406'
p2828
tp2829
a(S"don't"
p2830
S'notice'
p2831
tp2832
a(S'dontdoit'
p2833
S'0.406'
p2834
tp2835
a(S"don't"
p2836
S'try'
p2837
tp2838
a(S'not'
p2839
S'allowed'
p2840
tp2841
a(S'not'
p2842
S'true'
p2843
tp2844
a(S'nomoney'
p2845
S'0.406'
p2846
tp2847
a(S'no'
p2848
S'way'
p2849
tp2850
a(S'misses'
p2851
S'0.406'
p2852
tp2853
a(S'fuzzball'
p2854
S'0.406'
p2855
tp2856
a(S'said'
p2857
S'0.406'
p2858
tp2859
a(S'low'
p2860
S'0.406'
p2861
tp2862
a(S'budget'
p2863
S'0.406'
p2864
tp2865
a(S'not'
p2866
S'coming'
p2867
tp2868
a(S"can't"
p2869
S'find'
p2870
tp2871
a(S'spreading'
p2872
S'0.406'
p2873
tp2874
a(S"don't"
p2875
S'know'
p2876
tp2877
a(S'needsleep'
p2878
S'0.398'
p2879
tp2880
a(S"can't"
p2881
S'help'
p2882
tp2883
a(S"can't"
p2884
S'hardly'
p2885
tp2886
a(S"don't"
p2887
S'panic'
p2888
tp2889
a(S"ain't"
p2890
S'got'
p2891
tp2892
a(S'unnecessarily'
p2893
S'0.398'
p2894
tp2895
a(S"don't"
p2896
S'forget'
p2897
tp2898
a(S'beg'
p2899
S'0.398'
p2900
tp2901
a(S"can't"
p2902
S'make'
p2903
tp2904
a(S'no'
p2905
S'excuse'
p2906
tp2907
a(S"don't"
p2908
S'throw'
p2909
tp2910
a(S'shareholder'
p2911
S'0.398'
p2912
tp2913
a(S"can't"
p2914
S'sing'
p2915
tp2916
a(S"can't"
p2917
S'connect'
p2918
tp2919
a(S'rough'
p2920
S'0.391'
p2921
tp2922
a(S'rantover'
p2923
S'0.391'
p2924
tp2925
a(S'tired'
p2926
S'0.391'
p2927
tp2928
a(S'sell'
p2929
S'0.391'
p2930
tp2931
a(S'version'
p2932
S'0.391'
p2933
tp2934
a(S'wearing'
p2935
S'0.391'
p2936
tp2937
a(S'tired'
p2938
S'0.391'
p2939
tp2940
a(S"don't"
p2941
S'call'
p2942
tp2943
a(S"don't"
p2944
S'scare'
p2945
tp2946
a(S"can't"
p2947
S'see'
p2948
tp2949
a(S'unfollow'
p2950
S'0.383'
p2951
tp2952
a(S"can't"
p2953
S'say'
p2954
tp2955
a(S"don't"
p2956
S'need'
p2957
tp2958
a(S'defense'
p2959
S'0.383'
p2960
tp2961
a(S'needalife'
p2962
S'0.383'
p2963
tp2964
a(S'broke'
p2965
S'0.383'
p2966
tp2967
a(S'never'
p2968
S'sleeps'
p2969
tp2970
a(S"can't"
p2971
S'read'
p2972
tp2973
a(S'fake'
p2974
S'0.383'
p2975
tp2976
a(S"don't"
p2977
S'understand'
p2978
tp2979
a(S"can't"
p2980
S'open'
p2981
tp2982
a(S'lonely'
p2983
S'0.383'
p2984
tp2985
a(S'notfunny'
p2986
S'0.383'
p2987
tp2988
a(S'disbelieve'
p2989
S'0.383'
p2990
tp2991
a(S'smh'
p2992
S'0.375'
p2993
tp2994
a(S"can't"
p2995
S'sleep'
p2996
tp2997
a(S"didn't"
p2998
S'win'
p2999
tp3000
a(S'bethatway'
p3001
S'0.375'
p3002
tp3003
a(S'not'
p3004
S'saying'
p3005
tp3006
a(S"can't"
p3007
S'pull'
p3008
tp3009
a(S"don't"
p3010
S'wear'
p3011
tp3012
a(S'ignore'
p3013
S'0.375'
p3014
tp3015
a(S'no'
p3016
S'ambition'
p3017
tp3018
a(S"haven't"
p3019
S'tweeted'
p3020
tp3021
a(S'ffoe'
p3022
S'0.375'
p3023
tp3024
a(S'no'
p3025
S'avail'
p3026
tp3027
a(S'impersonal'
p3028
S'0.375'
p3029
tp3030
a(S"don't"
p3031
S'give'
p3032
tp3033
a(S'unfollowed'
p3034
S'0.375'
p3035
tp3036
a(S'nobody'
p3037
S'0.375'
p3038
tp3039
a(S'govt'
p3040
S'0.375'
p3041
tp3042
a(S'refrain'
p3043
S'0.367'
p3044
tp3045
a(S'offense'
p3046
S'0.367'
p3047
tp3048
a(S'business'
p3049
S'0.367'
p3050
tp3051
a(S'unwrap'
p3052
S'0.367'
p3053
tp3054
a(S'embarrassed'
p3055
S'0.367'
p3056
tp3057
a(S"don't"
p3058
S'text'
p3059
tp3060
a(S"don't"
p3061
S'expect'
p3062
tp3063
a(S'beat'
p3064
S'0.367'
p3065
tp3066
a(S'sadly'
p3067
S'0.367'
p3068
tp3069
a(S'ramblings'
p3070
S'0.367'
p3071
tp3072
a(S';d'
p3073
S'0.367'
p3074
tp3075
a(S'no'
p3076
S'alarm'
p3077
tp3078
a(S'never'
p3079
S'learn'
p3080
tp3081
a(S"can't"
p3082
S'bare'
p3083
tp3084
a(S'no'
p3085
S'longer'
p3086
tp3087
a(S'jumpy'
p3088
S'0.359'
p3089
tp3090
a(S'missing'
p3091
S'0.359'
p3092
tp3093
a(S'not'
p3094
S'ready'
p3095
tp3096
a(S'no'
p3097
S'type'
p3098
tp3099
a(S'no'
p3100
S'response'
p3101
tp3102
a(S"don't"
p3103
S'wanna'
p3104
tp3105
a(S'outofshape'
p3106
S'0.359'
p3107
tp3108
a(S'break'
p3109
S'0.359'
p3110
tp3111
a(S'drama'
p3112
S'0.359'
p3113
tp3114
a(S"can't"
p3115
S'date'
p3116
tp3117
a(S'ugh'
p3118
S'0.359'
p3119
tp3120
a(S'cold'
p3121
S'0.359'
p3122
tp3123
a(S'not'
p3124
S'feeling'
p3125
tp3126
a(S'unfair'
p3127
S'0.359'
p3128
tp3129
a(S"can't"
p3130
S'keep'
p3131
tp3132
a(S'):'
p3133
S'0.352'
p3134
tp3135
a(S"didn't"
p3136
S'get'
p3137
tp3138
a(S'scary'
p3139
S'0.352'
p3140
tp3141
a(S'ew'
p3142
S'0.352'
p3143
tp3144
a(S'no'
p3145
S'reason'
p3146
tp3147
a(S"can't"
p3148
S'tweet'
p3149
tp3150
a(S'hours'
p3151
S'0.352'
p3152
tp3153
a(S'nojob'
p3154
S'0.344'
p3155
tp3156
a(S'studentproblems'
p3157
S'0.344'
p3158
tp3159
a(S"don't"
p3160
S'deserve'
p3161
tp3162
a(S'shocking'
p3163
S'0.344'
p3164
tp3165
a(S"didn't"
p3166
S'show'
p3167
tp3168
a(S"don't"
p3169
S'care'
p3170
tp3171
a(S'late'
p3172
S'0.344'
p3173
tp3174
a(S"don't"
p3175
S'listen'
p3176
tp3177
a(S'canthelpit'
p3178
S'0.344'
p3179
tp3180
a(S"can't"
p3181
S'go'
p3182
tp3183
a(S'ugh'
p3184
S'0.336'
p3185
tp3186
a(S'not'
p3187
S'paying'
p3188
tp3189
a(S'black'
p3190
S'0.336'
p3191
tp3192
a(S'swear'
p3193
S'0.336'
p3194
tp3195
a(S"can't"
p3196
S'seem'
p3197
tp3198
a(S'not'
p3199
S'setting'
p3200
tp3201
a(S'lost'
p3202
S'0.336'
p3203
tp3204
a(S'not'
p3205
S'familiar'
p3206
tp3207
a(S'never'
p3208
S'knew'
p3209
tp3210
a(S'neveragain'
p3211
S'0.336'
p3212
tp3213
a(S'worried'
p3214
S'0.336'
p3215
tp3216
a(S"can't"
p3217
S'cook'
p3218
tp3219
a(S'badly'
p3220
S'0.336'
p3221
tp3222
a(S'silence'
p3223
S'0.336'
p3224
tp3225
a(S'end'
p3226
S'0.328'
p3227
tp3228
a(S'ouch'
p3229
S'0.328'
p3230
tp3231
a(S'sorry'
p3232
S'0.328'
p3233
tp3234
a(S'argh'
p3235
S'0.328'
p3236
tp3237
a(S'no'
p3238
S'sympathy'
p3239
tp3240
a(S'gone'
p3241
S'0.328'
p3242
tp3243
a(S'media'
p3244
S'0.328'
p3245
tp3246
a(S"don't"
p3247
S'drink'
p3248
tp3249
a(S"don't"
p3250
S'answer'
p3251
tp3252
a(S'embarrassing'
p3253
S'0.32'
p3254
tp3255
a(S'notmyfault'
p3256
S'0.32'
p3257
tp3258
a(S"don't"
p3259
S'accept'
p3260
tp3261
a(S"can't"
p3262
S'come'
p3263
tp3264
a(S'not'
p3265
S'getting'
p3266
tp3267
a(S'hang'
p3268
S'0.32'
p3269
tp3270
a(S'majorturnoffs'
p3271
S'0.32'
p3272
tp3273
a(S'mediocrity'
p3274
S'0.32'
p3275
tp3276
a(S'noexcuse'
p3277
S'0.32'
p3278
tp3279
a(S'notwell'
p3280
S'0.32'
p3281
tp3282
a(S'not'
p3283
S'attainable'
p3284
tp3285
a(S'no'
p3286
S'job'
p3287
tp3288
a(S'imperfection'
p3289
S'0.313'
p3290
tp3291
a(S"don't"
p3292
S'think'
p3293
tp3294
a(S'pleasestop'
p3295
S'0.313'
p3296
tp3297
a(S':/'
p3298
S'0.313'
p3299
tp3300
a(S'unfamiliar'
p3301
S'0.313'
p3302
tp3303
a(S'hurt'
p3304
S'0.313'
p3305
tp3306
a(S'boycott'
p3307
S'0.313'
p3308
tp3309
a(S"haven't"
p3310
S'decided'
p3311
tp3312
a(S'petpeeve'
p3313
S'0.313'
p3314
tp3315
a(S"can't"
p3316
S'buy'
p3317
tp3318
a(S'not'
p3319
S'okay'
p3320
tp3321
a(S'sacked'
p3322
S'0.305'
p3323
tp3324
a(S'fat'
p3325
S'0.305'
p3326
tp3327
a(S'getoverit'
p3328
S'0.305'
p3329
tp3330
a(S'unmade'
p3331
S'0.305'
p3332
tp3333
a(S'dematerialize'
p3334
S'0.305'
p3335
tp3336
a(S'slacking'
p3337
S'0.305'
p3338
tp3339
a(S'fucking'
p3340
S'0.305'
p3341
tp3342
a(S'not'
p3343
S'impressing'
p3344
tp3345
a(S'waste'
p3346
S'0.305'
p3347
tp3348
a(S'distrust'
p3349
S'0.305'
p3350
tp3351
a(S'not'
p3352
S'clean'
p3353
tp3354
a(S'not'
p3355
S'worth'
p3356
tp3357
a(S'never'
p3358
S'made'
p3359
tp3360
a(S'never'
p3361
S'happen'
p3362
tp3363
a(S'not'
p3364
S'cool'
p3365
tp3366
a(S'bummer'
p3367
S'0.305'
p3368
tp3369
a(S'cough'
p3370
S'0.305'
p3371
tp3372
a(S'empty'
p3373
S'0.305'
p3374
tp3375
a(S'bother'
p3376
S'0.305'
p3377
tp3378
a(S'not'
p3379
S'nice'
p3380
tp3381
a(S"can't"
p3382
S'handle'
p3383
tp3384
a(S'ass'
p3385
S'0.297'
p3386
tp3387
a(S'myweakness'
p3388
S'0.297'
p3389
tp3390
a(S'immature'
p3391
S'0.297'
p3392
tp3393
a(S'cancelled'
p3394
S'0.297'
p3395
tp3396
a(S'shocking'
p3397
S'0.297'
p3398
tp3399
a(S"can't"
p3400
S'deal'
p3401
tp3402
a(S'smfh'
p3403
S'0.297'
p3404
tp3405
a(S'not'
p3406
S'recommend'
p3407
tp3408
a(S'delay'
p3409
S'0.289'
p3410
tp3411
a(S'smelly'
p3412
S'0.289'
p3413
tp3414
a(S"can't"
p3415
S'take'
p3416
tp3417
a(S'itsnotokayto'
p3418
S'0.289'
p3419
tp3420
a(S'grim'
p3421
S'0.289'
p3422
tp3423
a(S"don't"
p3424
S'follow'
p3425
tp3426
a(S'no'
p3427
S'0.289'
p3428
tp3429
a(S'needajob'
p3430
S'0.289'
p3431
tp3432
a(S'disloyal'
p3433
S'0.289'
p3434
tp3435
a(S"don't"
p3436
S'love'
p3437
tp3438
a(S'woeful'
p3439
S'0.281'
p3440
tp3441
a(S'excuses'
p3442
S'0.281'
p3443
tp3444
a(S'gag'
p3445
S'0.281'
p3446
tp3447
a(S'ergh'
p3448
S'0.281'
p3449
tp3450
a(S'wrong'
p3451
S'0.281'
p3452
tp3453
a(S"can't"
p3454
S'hack'
p3455
tp3456
a(S'stunk'
p3457
S'0.281'
p3458
tp3459
a(S'no'
p3460
S'self'
p3461
tp3462
a(S'not'
p3463
S'exactly'
p3464
tp3465
a(S'spoiled'
p3466
S'0.281'
p3467
tp3468
a(S'fake'
p3469
S'0.273'
p3470
tp3471
a(S'wrong'
p3472
S'0.273'
p3473
tp3474
a(S'unmoved'
p3475
S'0.273'
p3476
tp3477
a(S'lost'
p3478
S'0.273'
p3479
tp3480
a(S'worse'
p3481
S'0.273'
p3482
tp3483
a(S'boring'
p3484
S'0.273'
p3485
tp3486
a(S'needy'
p3487
S'0.273'
p3488
tp3489
a(S'sore'
p3490
S'0.273'
p3491
tp3492
a(S'ridiculous'
p3493
S'0.273'
p3494
tp3495
a(S'fever'
p3496
S'0.273'
p3497
tp3498
a(S"haven't"
p3499
S'moved'
p3500
tp3501
a(S':('
p3502
S'0.273'
p3503
tp3504
a(S'stop'
p3505
S'0.273'
p3506
tp3507
a(S'hard'
p3508
S'0.273'
p3509
tp3510
a(S'classless'
p3511
S'0.273'
p3512
tp3513
a(S'ridiculous'
p3514
S'0.266'
p3515
tp3516
a(S'cry'
p3517
S'0.266'
p3518
tp3519
a(S'selfish'
p3520
S'0.266'
p3521
tp3522
a(S'spew'
p3523
S'0.266'
p3524
tp3525
a(S'unfortunately'
p3526
S'0.266'
p3527
tp3528
a(S'spoiled'
p3529
S'0.266'
p3530
tp3531
a(S'fml'
p3532
S'0.266'
p3533
tp3534
a(S"can't"
p3535
S'remember'
p3536
tp3537
a(S'eurgh'
p3538
S'0.266'
p3539
tp3540
a(S'not'
p3541
S'working'
p3542
tp3543
a(S'mybad'
p3544
S'0.258'
p3545
tp3546
a(S'nopoint'
p3547
S'0.258'
p3548
tp3549
a(S'forget'
p3550
S'0.258'
p3551
tp3552
a(S'eww'
p3553
S'0.258'
p3554
tp3555
a(S'judging'
p3556
S'0.258'
p3557
tp3558
a(S'wasted'
p3559
S'0.258'
p3560
tp3561
a(S"don't"
p3562
S'act'
p3563
tp3564
a(S'scare'
p3565
S'0.258'
p3566
tp3567
a(S'botch'
p3568
S'0.258'
p3569
tp3570
a(S'dislike'
p3571
S'0.258'
p3572
tp3573
a(S"can't"
p3574
S'teach'
p3575
tp3576
a(S'not'
p3577
S'acceptable'
p3578
tp3579
a(S'ignored'
p3580
S'0.258'
p3581
tp3582
a(S'notsorry'
p3583
S'0.258'
p3584
tp3585
a(S'unattractive'
p3586
S'0.258'
p3587
tp3588
a(S'cheap'
p3589
S'0.258'
p3590
tp3591
a(S'neurotic'
p3592
S'0.25'
p3593
tp3594
a(S"can't"
p3595
S'afford'
p3596
tp3597
a(S'mess'
p3598
S'0.25'
p3599
tp3600
a(S"can't"
p3601
S'bring'
p3602
tp3603
a(S'disconnect'
p3604
S'0.25'
p3605
tp3606
a(S'whatajoke'
p3607
S'0.25'
p3608
tp3609
a(S'never'
p3610
S'tried'
p3611
tp3612
a(S'unwanted'
p3613
S'0.25'
p3614
tp3615
a(S'prohibit'
p3616
S'0.25'
p3617
tp3618
a(S'fuckin'
p3619
S'0.25'
p3620
tp3621
a(S'ex'
p3622
S'0.25'
p3623
tp3624
a(S'not'
p3625
S'cute'
p3626
tp3627
a(S'annoyed'
p3628
S'0.25'
p3629
tp3630
a(S'=('
p3631
S'0.25'
p3632
tp3633
a(S'cry'
p3634
S'0.25'
p3635
tp3636
a(S'headache'
p3637
S'0.25'
p3638
tp3639
a(S'bad'
p3640
S'0.25'
p3641
tp3642
a(S'grumpy'
p3643
S'0.242'
p3644
tp3645
a(S'leave'
p3646
S'0.242'
p3647
tp3648
a(S'shot'
p3649
S'0.242'
p3650
tp3651
a(S'sorethroat'
p3652
S'0.242'
p3653
tp3654
a(S'scariest'
p3655
S'0.242'
p3656
tp3657
a(S"don't"
p3658
S'want'
p3659
tp3660
a(S'dumb'
p3661
S'0.242'
p3662
tp3663
a(S'dammit'
p3664
S'0.242'
p3665
tp3666
a(S'no'
p3667
S'money'
p3668
tp3669
a(S'bored'
p3670
S'0.242'
p3671
tp3672
a(S'nogood'
p3673
S'0.242'
p3674
tp3675
a(S'scarred'
p3676
S'0.234'
p3677
tp3678
a(S'dumb'
p3679
S'0.234'
p3680
tp3681
a(S'not'
p3682
S'happy'
p3683
tp3684
a(S'thingsyoushouldntdo'
p3685
S'0.234'
p3686
tp3687
a(S'ew'
p3688
S'0.234'
p3689
tp3690
a(S'sorrynotsorry'
p3691
S'0.234'
p3692
tp3693
a(S'blatant'
p3694
S'0.234'
p3695
tp3696
a(S'malfunction'
p3697
S'0.234'
p3698
tp3699
a(S'unhappy'
p3700
S'0.234'
p3701
tp3702
a(S'wtf'
p3703
S'0.234'
p3704
tp3705
a(S'jobless'
p3706
S'0.234'
p3707
tp3708
a(S'not'
p3709
S'attractive'
p3710
tp3711
a(S'not'
p3712
S'fair'
p3713
tp3714
a(S'gag'
p3715
S'0.227'
p3716
tp3717
a(S'no'
p3718
S'fucking'
p3719
tp3720
a(S'oops'
p3721
S'0.227'
p3722
tp3723
a(S'poor'
p3724
S'0.227'
p3725
tp3726
a(S'not'
p3727
S'able'
p3728
tp3729
a(S'bum'
p3730
S'0.227'
p3731
tp3732
a(S'feelingsorryformyself'
p3733
S'0.227'
p3734
tp3735
a(S'dick'
p3736
S'0.227'
p3737
tp3738
a(S'bummed'
p3739
S'0.227'
p3740
tp3741
a(S'losing'
p3742
S'0.227'
p3743
tp3744
a(S'cringe'
p3745
S'0.227'
p3746
tp3747
a(S'heartbroken'
p3748
S'0.219'
p3749
tp3750
a(S'norespect'
p3751
S'0.219'
p3752
tp3753
a(S'confused'
p3754
S'0.219'
p3755
tp3756
a(S'immature'
p3757
S'0.219'
p3758
tp3759
a(S'desperate'
p3760
S'0.219'
p3761
tp3762
a(S'sick'
p3763
S'0.219'
p3764
tp3765
a(S'lose'
p3766
S'0.219'
p3767
tp3768
a(S":'("
p3769
S'0.219'
p3770
tp3771
a(S'lostcause'
p3772
S'0.219'
p3773
tp3774
a(S'aint'
p3775
S'loyal'
p3776
tp3777
a(S'disrespect'
p3778
S'0.219'
p3779
tp3780
a(S'nothing'
p3781
S'worse'
p3782
tp3783
a(S'juststop'
p3784
S'0.219'
p3785
tp3786
a(S'cheat'
p3787
S'0.219'
p3788
tp3789
a(S'sad'
p3790
S'0.219'
p3791
tp3792
a(S'slag'
p3793
S'0.211'
p3794
tp3795
a(S'unable'
p3796
S'0.211'
p3797
tp3798
a(S'dirty'
p3799
S'0.211'
p3800
tp3801
a(S'unhappy'
p3802
S'0.211'
p3803
tp3804
a(S'desperate'
p3805
S'0.211'
p3806
tp3807
a(S'disappointed'
p3808
S'0.211'
p3809
tp3810
a(S'needmoney'
p3811
S'0.211'
p3812
tp3813
a(S'fuck'
p3814
S'0.211'
p3815
tp3816
a(S'wimp'
p3817
S'0.211'
p3818
tp3819
a(S'helpless'
p3820
S'0.203'
p3821
tp3822
a(S'sucking'
p3823
S'0.203'
p3824
tp3825
a(S'rant'
p3826
S'0.203'
p3827
tp3828
a(S'fail'
p3829
S'0.203'
p3830
tp3831
a(S'broke'
p3832
S'0.203'
p3833
tp3834
a(S"can't"
p3835
S'score'
p3836
tp3837
a(S"doesn't"
p3838
S'work'
p3839
tp3840
a(S'mad'
p3841
S'0.203'
p3842
tp3843
a(S'notgood'
p3844
S'0.203'
p3845
tp3846
a(S'cold'
p3847
S'0.203'
p3848
tp3849
a(S'awful'
p3850
S'0.203'
p3851
tp3852
a(S'awkward'
p3853
S'0.203'
p3854
tp3855
a(S'pig'
p3856
S'0.195'
p3857
tp3858
a(S'crying'
p3859
S'0.195'
p3860
tp3861
a(S'stressed'
p3862
S'0.195'
p3863
tp3864
a(S'no'
p3865
S'balls'
p3866
tp3867
a(S'disapprove'
p3868
S'0.195'
p3869
tp3870
a(S'hellno'
p3871
S'0.195'
p3872
tp3873
a(S'shameful'
p3874
S'0.195'
p3875
tp3876
a(S'ache'
p3877
S'0.195'
p3878
tp3879
a(S'flu'
p3880
S'0.195'
p3881
tp3882
a(S'coward'
p3883
S'0.195'
p3884
tp3885
a(S'cheating'
p3886
S'0.188'
p3887
tp3888
a(S'no'
p3889
S'morals'
p3890
tp3891
a(S"ain't"
p3892
S'shit'
p3893
tp3894
a(S'unprofessional'
p3895
S'0.188'
p3896
tp3897
a(S'tacky'
p3898
S'0.188'
p3899
tp3900
a(S'pitiful'
p3901
S'0.188'
p3902
tp3903
a(S'goaway'
p3904
S'0.188'
p3905
tp3906
a(S'mad'
p3907
S'0.188'
p3908
tp3909
a(S'liars'
p3910
S'0.188'
p3911
tp3912
a(S'offensive'
p3913
S'0.188'
p3914
tp3915
a(S'pointless'
p3916
S'0.188'
p3917
tp3918
a(S'hurts'
p3919
S'0.18'
p3920
tp3921
a(S'dreadful'
p3922
S'0.18'
p3923
tp3924
a(S'cellulite'
p3925
S'0.18'
p3926
tp3927
a(S'hopeless'
p3928
S'0.18'
p3929
tp3930
a(S'yuk'
p3931
S'0.18'
p3932
tp3933
a(S'rude'
p3934
S'0.18'
p3935
tp3936
a(S'rude'
p3937
S'0.18'
p3938
tp3939
a(S'weak'
p3940
S'0.18'
p3941
tp3942
a(S'gutted'
p3943
S'0.18'
p3944
tp3945
a(S'feelshit'
p3946
S'0.172'
p3947
tp3948
a(S'fucked'
p3949
S'0.172'
p3950
tp3951
a(S'morons'
p3952
S'0.172'
p3953
tp3954
a(S'headache'
p3955
S'0.172'
p3956
tp3957
a(S'mess'
p3958
S'0.172'
p3959
tp3960
a(S'fedup'
p3961
S'0.172'
p3962
tp3963
a(S'damn'
p3964
S'0.172'
p3965
tp3966
a(S'lowlife'
p3967
S'0.172'
p3968
tp3969
a(S'insidious'
p3970
S'0.164'
p3971
tp3972
a(S'pissedoff'
p3973
S'0.164'
p3974
tp3975
a(S'ungrateful'
p3976
S'0.164'
p3977
tp3978
a(S'ill'
p3979
S'0.164'
p3980
tp3981
a(S'twofaced'
p3982
S'0.164'
p3983
tp3984
a(S'pain'
p3985
S'0.164'
p3986
tp3987
a(S'bullying'
p3988
S'0.164'
p3989
tp3990
a(S'feelsick'
p3991
S'0.164'
p3992
tp3993
a(S'notgoodenough'
p3994
S'0.164'
p3995
tp3996
a(S'eww'
p3997
S'0.164'
p3998
tp3999
a(S'lonely'
p4000
S'0.164'
p4001
tp4002
a(S'sosad'
p4003
S'0.164'
p4004
tp4005
a(S'nolife'
p4006
S'0.164'
p4007
tp4008
a(S'letdown'
p4009
S'0.164'
p4010
tp4011
a(S'disappointed'
p4012
S'0.156'
p4013
tp4014
a(S'smartass'
p4015
S'0.156'
p4016
tp4017
a(S"can't"
p4018
S'cope'
p4019
tp4020
a(S'failed'
p4021
S'0.156'
p4022
tp4023
a(S'lie'
p4024
S'0.156'
p4025
tp4026
a(S'upset'
p4027
S'0.156'
p4028
tp4029
a(S'nasty'
p4030
S'0.156'
p4031
tp4032
a(S"can't"
p4033
S'eat'
p4034
tp4035
a(S'mean'
p4036
S'0.156'
p4037
tp4038
a(S'crying'
p4039
S'0.156'
p4040
tp4041
a(S'worthless'
p4042
S'0.156'
p4043
tp4044
a(S'getalife'
p4045
S'0.156'
p4046
tp4047
a(S'ashamed'
p4048
S'0.156'
p4049
tp4050
a(S'poverty'
p4051
S'0.148'
p4052
tp4053
a(S'shootings'
p4054
S'0.148'
p4055
tp4056
a(S'idiot'
p4057
S'0.148'
p4058
tp4059
a(S'no'
p4060
S'hope'
p4061
tp4062
a(S'tasteless'
p4063
S'0.148'
p4064
tp4065
a(S'terrible'
p4066
S'0.148'
p4067
tp4068
a(S'not'
p4069
S'good'
p4070
tp4071
a(S'abysmal'
p4072
S'0.148'
p4073
tp4074
a(S'smelly'
p4075
S'0.148'
p4076
tp4077
a(S'ruining'
p4078
S'0.148'
p4079
tp4080
a(S'no'
p4081
S'luck'
p4082
tp4083
a(S'yuck'
p4084
S'0.148'
p4085
tp4086
a(S'depressed'
p4087
S'0.148'
p4088
tp4089
a(S'liar'
p4090
S'0.141'
p4091
tp4092
a(S'broken'
p4093
S'0.141'
p4094
tp4095
a(S'scum'
p4096
S'0.141'
p4097
tp4098
a(S'cringe'
p4099
S'0.141'
p4100
tp4101
a(S'worst'
p4102
S'0.141'
p4103
tp4104
a(S'no'
p4105
S'fun'
p4106
tp4107
a(S'broken'
p4108
S'0.141'
p4109
tp4110
a(S'heartbroken'
p4111
S'0.141'
p4112
tp4113
a(S'wasteoftime'
p4114
S'0.141'
p4115
tp4116
a(S'annoying'
p4117
S'0.141'
p4118
tp4119
a(S'sick'
p4120
S'0.141'
p4121
tp4122
a(S'banned'
p4123
S'0.141'
p4124
tp4125
a(S'fail'
p4126
S'0.133'
p4127
tp4128
a(S'idiots'
p4129
S'0.133'
p4130
tp4131
a(S'wasteofspace'
p4132
S'0.133'
p4133
tp4134
a(S'ignorant'
p4135
S'0.133'
p4136
tp4137
a(S'disgust'
p4138
S'0.133'
p4139
tp4140
a(S'fat'
p4141
S'0.133'
p4142
tp4143
a(S'hateit'
p4144
S'0.133'
p4145
tp4146
a(S'embarrassment'
p4147
S'0.133'
p4148
tp4149
a(S'stupid'
p4150
S'0.133'
p4151
tp4152
a(S'rotten'
p4153
S'0.133'
p4154
tp4155
a(S'loser'
p4156
S'0.133'
p4157
tp4158
a(S'quit'
p4159
S'0.133'
p4160
tp4161
a(S'ewww'
p4162
S'0.133'
p4163
tp4164
a(S'hideous'
p4165
S'0.125'
p4166
tp4167
a(S'stinks'
p4168
S'0.125'
p4169
tp4170
a(S'horror'
p4171
S'0.125'
p4172
tp4173
a(S'repulsive'
p4174
S'0.125'
p4175
tp4176
a(S'liar'
p4177
S'0.125'
p4178
tp4179
a(S'shit'
p4180
S'0.125'
p4181
tp4182
a(S'r.i.p.'
p4183
S'0.125'
p4184
tp4185
a(S'horrified'
p4186
S'0.125'
p4187
tp4188
a(S'hideous'
p4189
S'0.125'
p4190
tp4191
a(S'creepy'
p4192
S'0.125'
p4193
tp4194
a(S'lazy'
p4195
S'0.125'
p4196
tp4197
a(S'disrespectful'
p4198
S'0.125'
p4199
tp4200
a(S'victims'
p4201
S'0.117'
p4202
tp4203
a(S'no'
p4204
S'respect'
p4205
tp4206
a(S'shame'
p4207
S'0.117'
p4208
tp4209
a(S'dissapointed'
p4210
S'0.117'
p4211
tp4212
a(S'depressing'
p4213
S'0.117'
p4214
tp4215
a(S"can't"
p4216
S'stand'
p4217
tp4218
a(S'hell'
p4219
S'0.117'
p4220
tp4221
a(S'grimey'
p4222
S'0.117'
p4223
tp4224
a(S'vomit'
p4225
S'0.117'
p4226
tp4227
a(S'scary'
p4228
S'0.117'
p4229
tp4230
a(S'upset'
p4231
S'0.117'
p4232
tp4233
a(S'tramp'
p4234
S'0.117'
p4235
tp4236
a(S'embarrassing'
p4237
S'0.109'
p4238
tp4239
a(S'slut'
p4240
S'0.109'
p4241
tp4242
a(S'appalling'
p4243
S'0.109'
p4244
tp4245
a(S'cheat'
p4246
S'0.109'
p4247
tp4248
a(S'hater'
p4249
S'0.109'
p4250
tp4251
a(S'bitch'
p4252
S'0.109'
p4253
tp4254
a(S'justno'
p4255
S'0.109'
p4256
tp4257
a(S'disgusts'
p4258
S'0.109'
p4259
tp4260
a(S'ignorant'
p4261
S'0.109'
p4262
tp4263
a(S'horrific'
p4264
S'0.102'
p4265
tp4266
a(S'useless'
p4267
S'0.102'
p4268
tp4269
a(S'filthy'
p4270
S'0.102'
p4271
tp4272
a(S"don't"
p4273
S'trust'
p4274
tp4275
a(S'gtfo'
p4276
S'0.102'
p4277
tp4278
a(S'horror'
p4279
S'0.102'
p4280
tp4281
a(S'dirty'
p4282
S'0.102'
p4283
tp4284
a(S'sinister'
p4285
S'0.102'
p4286
tp4287
a(S'bastard'
p4288
S'0.094'
p4289
tp4290
a(S'horrible'
p4291
S'0.094'
p4292
tp4293
a(S'disgraceful'
p4294
S'0.094'
p4295
tp4296
a(S'disgrace'
p4297
S'0.094'
p4298
tp4299
a(S'hates'
p4300
S'0.094'
p4301
tp4302
a(S'revolting'
p4303
S'0.094'
p4304
tp4305
a(S'gross'
p4306
S'0.094'
p4307
tp4308
a(S'makesmesick'
p4309
S'0.094'
p4310
tp4311
a(S'foul'
p4312
S'0.094'
p4313
tp4314
a(S'trash'
p4315
S'0.094'
p4316
tp4317
a(S'vile'
p4318
S'0.094'
p4319
tp4320
a(S'hurt'
p4321
S'0.094'
p4322
tp4323
a(S'disgrace'
p4324
S'0.094'
p4325
tp4326
a(S'putrid'
p4327
S'0.086'
p4328
tp4329
a(S'scum'
p4330
S'0.086'
p4331
tp4332
a(S'disrespectful'
p4333
S'0.086'
p4334
tp4335
a(S'losers'
p4336
S'0.086'
p4337
tp4338
a(S'ugly'
p4339
S'0.086'
p4340
tp4341
a(S'horrid'
p4342
S'0.086'
p4343
tp4344
a(S'getagrip'
p4345
S'0.086'
p4346
tp4347
a(S'frustrated'
p4348
S'0.086'
p4349
tp4350
a(S'depressed'
p4351
S'0.086'
p4352
tp4353
a(S'ugly'
p4354
S'0.086'
p4355
tp4356
a(S'cretin'
p4357
S'0.086'
p4358
tp4359
a(S'dying'
p4360
S'0.078'
p4361
tp4362
a(S'nasty'
p4363
S'0.078'
p4364
tp4365
a(S'disgusting'
p4366
S'0.078'
p4367
tp4368
a(S'disgusted'
p4369
S'0.078'
p4370
tp4371
a(S'scared'
p4372
S'0.078'
p4373
tp4374
a(S'fuckoff'
p4375
S'0.078'
p4376
tp4377
a(S'useless'
p4378
S'0.078'
p4379
tp4380
a(S'die'
p4381
S'0.07'
p4382
tp4383
a(S'ewwww'
p4384
S'0.07'
p4385
tp4386
a(S'sickening'
p4387
S'0.07'
p4388
tp4389
a(S'disappointing'
p4390
S'0.07'
p4391
tp4392
a(S'disgusting'
p4393
S'0.07'
p4394
tp4395
a(S'pathetic'
p4396
S'0.07'
p4397
tp4398
a(S'hate'
p4399
S'0.07'
p4400
tp4401
a(S'whore'
p4402
S'0.07'
p4403
tp4404
a(S'sleazy'
p4405
S'0.07'
p4406
tp4407
a(S'despair'
p4408
S'0.07'
p4409
tp4410
a(S'ashamed'
p4411
S'0.063'
p4412
tp4413
a(S'hate'
p4414
S'0.063'
p4415
tp4416
a(S'sucks'
p4417
S'0.063'
p4418
tp4419
a(S'tramps'
p4420
S'0.063'
p4421
tp4422
a(S'selfish'
p4423
S'0.063'
p4424
tp4425
a(S'tragic'
p4426
S'0.063'
p4427
tp4428
a(S'cruel'
p4429
S'0.063'
p4430
tp4431
a(S'hatred'
p4432
S'0.063'
p4433
tp4434
a(S'dying'
p4435
S'0.063'
p4436
tp4437
a(S'sucks'
p4438
S'0.055'
p4439
tp4440
a(S'horrendous'
p4441
S'0.055'
p4442
tp4443
a(S'feellikeshit'
p4444
S'0.055'
p4445
tp4446
a(S'theworst'
p4447
S'0.055'
p4448
tp4449
a(S'horrendous'
p4450
S'0.055'
p4451
tp4452
a(S'horrible'
p4453
S'0.055'
p4454
tp4455
a(S'despise'
p4456
S'0.055'
p4457
tp4458
a(S'ripoff'
p4459
S'0.055'
p4460
tp4461
a(S'angry'
p4462
S'0.055'
p4463
tp4464
a(S'disturbing'
p4465
S'0.047'
p4466
tp4467
a(S'tragedy'
p4468
S'0.047'
p4469
tp4470
a(S'disgraceful'
p4471
S'0.047'
p4472
tp4473
a(S'died'
p4474
S'0.047'
p4475
tp4476
a(S'notokay'
p4477
S'0.047'
p4478
tp4479
a(S'filth'
p4480
S'0.047'
p4481
tp4482
a(S'dumbass'
p4483
S'0.047'
p4484
tp4485
a(S'reject'
p4486
S'0.039'
p4487
tp4488
a(S'killed'
p4489
S'0.039'
p4490
tp4491
a(S'unacceptable'
p4492
S'0.039'
p4493
tp4494
a(S'disturbing'
p4495
S'0.039'
p4496
tp4497
a(S'murdered'
p4498
S'0.031'
p4499
tp4500
a(S'heartless'
p4501
S'0.031'
p4502
tp4503
a(S'disgusted'
p4504
S'0.031'
p4505
tp4506
a(S'poorly'
p4507
S'0.031'
p4508
tp4509
a(S'death'
p4510
S'0.031'
p4511
tp4512
a(S'depressing'
p4513
S'0.031'
p4514
tp4515
a(S'fuckup'
p4516
S'0.031'
p4517
tp4518
a(S'pieceofshit'
p4519
S'0.023'
p4520
tp4521
a(S'horrid'
p4522
S'0.023'
p4523
tp4524
a(S'scumbag'
p4525
S'0.016'
p4526
tp4527
a(S'abuse'
p4528
S'0.016'
p4529
tp4530
a(S'killyourself'
p4531
S'0.016'
p4532
tp4533
a(S'failure'
p4534
S'0.016'
p4535
tp4536
a(S'kill'
p4537
S'0.016'
p4538
tp4539
a(S'disappointment'
p4540
S'0.008'
p4541
tp4542
a(S'bitches'
p4543
S'0.008'
p4544
tp4545
a.